; Function Attrs: mustprogress uwtable
define hidden noundef zeroext i1 @_ZNK5osgeo4proj5datum13PrimeMeridian15_isEquivalentToEPKNS0_4util11IComparableENS4_9CriterionERKSt10shared_ptrINS0_2io15DatabaseContextEE(ptr noundef nonnull align 8 dereferenceable(64) %0, ptr noundef %1, i32 noundef %2, ptr noundef nonnull align 8 dereferenceable(16) %3) unnamed_addr #0 align 2 {
  %5 = icmp eq ptr %1, null
  br i1 %5, label %.thread, label %6

6:                                                ; preds = %4
  %7 = tail call ptr @__dynamic_cast(ptr nonnull %1, ptr nonnull @_ZTIN5osgeo4proj4util11IComparableE, ptr nonnull @_ZTIN5osgeo4proj5datum13PrimeMeridianE, i64 16) #26
  %8 = icmp eq ptr %7, null
  br i1 %8, label %.thread, label %9

9:                                                ; preds = %6
  %10 = tail call noundef zeroext i1 @_ZNK5osgeo4proj6common16IdentifiedObject15_isEquivalentToEPKNS0_4util11IComparableENS4_9CriterionERKSt10shared_ptrINS0_2io15DatabaseContextEE(ptr noundef nonnull align 8 dereferenceable(40) %0, ptr noundef nonnull %1, i32 noundef %2, ptr noundef nonnull align 8 dereferenceable(16) %3)
  br i1 %10, label %11, label %.thread

11:                                               ; preds = %9
  %12 = getelementptr inbounds i8, ptr %0, i64 56
  %13 = load ptr, ptr %12, align 8
  %14 = getelementptr inbounds i8, ptr %7, i64 56
  %15 = load ptr, ptr %14, align 8
  %16 = tail call noundef zeroext i1 @_ZNK5osgeo4proj6common7Measure15_isEquivalentToERKS2_NS0_4util11IComparable9CriterionEd(ptr noundef nonnull align 8 dereferenceable(24) %13, ptr noundef nonnull align 8 dereferenceable(24) %15, i32 noundef %2, double noundef 1.000000e-08)
  br label %.thread

.thread:                                          ; preds = %4, %6, %9, %11
  %.0 = phi i1 [ %16, %11 ], [ false, %9 ], [ false, %6 ], [ false, %4 ]
  ret i1 %.0
}